; Function Attrs: mustprogress uwtable
define dso_local noundef zeroext i1 @_ZN3url19CanonicalizePathURLEPKciRKNS_6ParsedEPNS_12CanonOutputTIcEEPS2_(ptr noundef %spec, i32 noundef %spec_len, ptr noundef nonnull align 8 dereferenceable(72) %parsed, ptr noundef %output, ptr noundef %new_parsed) local_unnamed_addr #0 {
entry:
  %call.i = tail call noundef zeroext i1 @_ZN3url18CanonicalizeSchemeEPKcRKNS_9ComponentEPNS_12CanonOutputTIcEEPS2_(ptr noundef %spec, ptr noundef nonnull align 4 dereferenceable(8) %parsed, ptr noundef %output, ptr noundef %new_parsed)
  %username.i1 = getelementptr inbounds i8, ptr %new_parsed, i64 8
  store <4 x i32> <i32 0, i32 -1, i32 0, i32 -1>, ptr %username.i1, align 4
  %host.i3 = getelementptr inbounds i8, ptr %new_parsed, i64 24
  store <4 x i32> <i32 0, i32 -1, i32 0, i32 -1>, ptr %host.i3, align 4
  %path3.i = getelementptr inbounds i8, ptr %parsed, i64 40
  %path4.i = getelementptr inbounds i8, ptr %new_parsed, i64 40
  %call5.i = tail call fastcc noundef zeroext i1 @_ZN3url12_GLOBAL__N_127DoCanonicalizePathComponentIchEEbPKT_RKNS_9ComponentEcPNS_12CanonOutputTIcEEPS5_(ptr noundef %spec, ptr noundef nonnull align 4 dereferenceable(8) %path3.i, i8 noundef signext 0, ptr noundef %output, ptr noundef nonnull %path4.i)
  %and20.i = and i1 %call.i, %call5.i
  %query9.i = getelementptr inbounds i8, ptr %parsed, i64 48
  %query10.i = getelementptr inbounds i8, ptr %new_parsed, i64 48
  %call11.i = tail call fastcc noundef zeroext i1 @_ZN3url12_GLOBAL__N_127DoCanonicalizePathComponentIchEEbPKT_RKNS_9ComponentEcPNS_12CanonOutputTIcEEPS5_(ptr noundef %spec, ptr noundef nonnull align 4 dereferenceable(8) %query9.i, i8 noundef signext 63, ptr noundef %output, ptr noundef nonnull %query10.i)
  %and1521.i = and i1 %and20.i, %call11.i
  %ref18.i = getelementptr inbounds i8, ptr %parsed, i64 56
  %ref19.i = getelementptr inbounds i8, ptr %new_parsed, i64 56
  %call20.i = tail call fastcc noundef zeroext i1 @_ZN3url12_GLOBAL__N_127DoCanonicalizePathComponentIchEEbPKT_RKNS_9ComponentEcPNS_12CanonOutputTIcEEPS5_(ptr noundef %spec, ptr noundef nonnull align 4 dereferenceable(8) %ref18.i, i8 noundef signext 35, ptr noundef %output, ptr noundef nonnull %ref19.i)
  %and2422.i = and i1 %and1521.i, %call20.i
  ret i1 %and2422.i
}